target datalayout = "e-m:e-p270:32:32-p271:32:32-p272:64:64-i64:64-i128:128-f80:128-n8:16:32:64-S128"
target triple = "x86_64-pc-linux-gnu"

@_ZTISt9exception = external constant ptr
@_ZN12_GLOBAL__N_112errorMessageE = internal global [1024 x i8] zeroinitializer, align 16

; Function Attrs: noinline noreturn nounwind uwtable
define linkonce_odr hidden void @__clang_call_terminate(ptr noundef %0) #11 comdat {
  %2 = call ptr @__cxa_begin_catch(ptr %0) #3
  call void @_ZSt9terminatev() #18
  unreachable
}

; Function Attrs: mustprogress nounwind uwtable
define internal void @_ZN12_GLOBAL__N_115setErrorMessageERKSt9exception(ptr noundef nonnull align 8 dereferenceable(8) %0) #4 {
  %2 = alloca ptr, align 8
  store ptr %0, ptr %2, align 8, !tbaa !23
  %3 = load ptr, ptr %2, align 8, !tbaa !23
  %4 = load ptr, ptr %3, align 8, !tbaa !30
  %5 = getelementptr inbounds ptr, ptr %4, i64 2
  %6 = load ptr, ptr %5, align 8
  %7 = call noundef ptr %6(ptr noundef nonnull align 8 dereferenceable(8) %3) #3
  %8 = call ptr @strncpy(ptr noundef @_ZN12_GLOBAL__N_112errorMessageE, ptr noundef %7, i64 noundef 1023) #3
  store i8 0, ptr getelementptr inbounds ([1024 x i8], ptr @_ZN12_GLOBAL__N_112errorMessageE, i64 0, i64 1023), align 1, !tbaa !32
  ret void
}

; Function Attrs: inlinehint mustprogress nounwind uwtable
define internal noundef ptr @_ZN12_GLOBAL__N_16infileEP17ImfTiledInputFile(ptr noundef %0) #6 {
  %2 = alloca ptr, align 8
  store ptr %0, ptr %2, align 8, !tbaa !131
  %3 = load ptr, ptr %2, align 8, !tbaa !131
  ret ptr %3
}

; Function Attrs: mustprogress uwtable
define i32 @ImfTiledInputSetFrameBuffer(ptr noundef %0, ptr noundef %1, i64 noundef %2, i64 noundef %3) #7 personality ptr @__gxx_personality_v0 {
  %5 = alloca i32, align 4
  %6 = alloca ptr, align 8
  %7 = alloca ptr, align 8
  %8 = alloca i64, align 8
  %9 = alloca i64, align 8
  %10 = alloca ptr, align 8
  %11 = alloca i32, align 4
  %12 = alloca ptr, align 8
  store ptr %0, ptr %6, align 8, !tbaa !131
  store ptr %1, ptr %7, align 8, !tbaa !123
  store i64 %2, ptr %8, align 8, !tbaa !125
  store i64 %3, ptr %9, align 8, !tbaa !125
  %13 = load ptr, ptr %6, align 8, !tbaa !131
  %14 = invoke noundef ptr @_ZN12_GLOBAL__N_16infileEP17ImfTiledInputFile(ptr noundef %13)
          to label %15 unwind label %20

15:                                               ; preds = %4
  %16 = load ptr, ptr %7, align 8, !tbaa !123
  %17 = load i64, ptr %8, align 8, !tbaa !125
  %18 = load i64, ptr %9, align 8, !tbaa !125
  invoke void @_ZN7Imf_3_418TiledRgbaInputFile14setFrameBufferEPNS_4RgbaEmm(ptr noundef nonnull align 8 dereferenceable(56) %14, ptr noundef %16, i64 noundef %17, i64 noundef %18)
          to label %19 unwind label %20

19:                                               ; preds = %15
  store i32 1, ptr %5, align 4
  br label %39

20:                                               ; preds = %15, %4
  %21 = landingpad { ptr, i32 }
          catch ptr @_ZTISt9exception
  %22 = extractvalue { ptr, i32 } %21, 0
  store ptr %22, ptr %10, align 8
  %23 = extractvalue { ptr, i32 } %21, 1
  store i32 %23, ptr %11, align 4
  br label %24

24:                                               ; preds = %20
  %25 = load i32, ptr %11, align 4
  %26 = call i32 @llvm.eh.typeid.for.p0(ptr @_ZTISt9exception) #3
  %27 = icmp eq i32 %25, %26
  br i1 %27, label %28, label %41

28:                                               ; preds = %24
  call void @llvm.lifetime.start.p0(i64 8, ptr %12) #3
  %29 = load ptr, ptr %10, align 8
  %30 = call ptr @__cxa_begin_catch(ptr %29) #3
  store ptr %30, ptr %12, align 8
  %31 = load ptr, ptr %12, align 8, !tbaa !23
  invoke void @_ZN12_GLOBAL__N_115setErrorMessageERKSt9exception(ptr noundef nonnull align 8 dereferenceable(8) %31)
          to label %32 unwind label %33

32:                                               ; preds = %28
  store i32 0, ptr %5, align 4
  call void @__cxa_end_catch()
  call void @llvm.lifetime.end.p0(i64 8, ptr %12) #3
  br label %39

33:                                               ; preds = %28
  %34 = landingpad { ptr, i32 }
          cleanup
  %35 = extractvalue { ptr, i32 } %34, 0
  store ptr %35, ptr %10, align 8
  %36 = extractvalue { ptr, i32 } %34, 1
  store i32 %36, ptr %11, align 4
  invoke void @__cxa_end_catch()
          to label %37 unwind label %46

37:                                               ; preds = %33
  call void @llvm.lifetime.end.p0(i64 8, ptr %12) #3
  br label %41

38:                                               ; No predecessors!
  unreachable

39:                                               ; preds = %32, %19
  %40 = load i32, ptr %5, align 4
  ret i32 %40

41:                                               ; preds = %37, %24
  %42 = load ptr, ptr %10, align 8
  %43 = load i32, ptr %11, align 4
  %44 = insertvalue { ptr, i32 } poison, ptr %42, 0
  %45 = insertvalue { ptr, i32 } %44, i32 %43, 1
  resume { ptr, i32 } %45

46:                                               ; preds = %33
  %47 = landingpad { ptr, i32 }
          catch ptr null
  %48 = extractvalue { ptr, i32 } %47, 0
  call void @__clang_call_terminate(ptr %48) #18
  unreachable
}